(lp0
(lp1
S'Zhenyu'
p2
aS'Zhang'
p3
a(lp4
S'ZhenyuZhang@google.com'
p5
aS'ZhangZhenyu@google.com'
p6
aS'Zhenyu.Zhang@google.com'
p7
aS'Zhang.Zhenyu@google.com'
p8
aS'Zhenyu_Zhang@google.com'
p9
aS'Zhang_Zhenyu@google.com'
p10
aS'ZZhang@google.com'
p11
aS'ZZhenyu@google.com'
p12
aS'ZhenyuZ@google.com'
p13
aS'Z.Zhang@google.com'
p14
aS'Z.Zhenyu@google.com'
p15
aS'ZhaZh@google.com'
p16
aS'ZhanZhe@google.com'
p17
aaa(lp18
S'Diane'
p19
aS'Liu'
p20
a(lp21
S'DianeLiu@google.com'
p22
aS'LiuDiane@google.com'
p23
aS'Diane.Liu@google.com'
p24
aS'Liu.Diane@google.com'
p25
aS'Diane_Liu@google.com'
p26
aS'Liu_Diane@google.com'
p27
aS'DLiu@google.com'
p28
aS'LDiane@google.com'
p29
aS'DianeL@google.com'
p30
aS'D.Liu@google.com'
p31
aS'L.Diane@google.com'
p32
aS'LiuDi@google.com'
p33
aS'LiuDia@google.com'
p34
aaa(lp35
S'Yang'
p36
aS'Xiao'
p37
a(lp38
S'YangXiao@google.com'
p39
aS'XiaoYang@google.com'
p40
aS'Yang.Xiao@google.com'
p41
aS'Xiao.Yang@google.com'
p42
aS'Yang_Xiao@google.com'
p43
aS'Xiao_Yang@google.com'
p44
aS'YXiao@google.com'
p45
aS'XYang@google.com'
p46
aS'YangX@google.com'
p47
aS'Y.Xiao@google.com'
p48
aS'X.Yang@google.com'
p49
aS'XiaYa@google.com'
p50
aS'XiaoYan@google.com'
p51
aaa(lp52
S'Junrui'
p53
aS'Ruan'
p54
a(lp55
S'JunruiRuan@google.com'
p56
aS'RuanJunrui@google.com'
p57
aS'Junrui.Ruan@google.com'
p58
aS'Ruan.Junrui@google.com'
p59
aS'Junrui_Ruan@google.com'
p60
aS'Ruan_Junrui@google.com'
p61
aS'JRuan@google.com'
p62
aS'RJunrui@google.com'
p63
aS'JunruiR@google.com'
p64
aS'J.Ruan@google.com'
p65
aS'R.Junrui@google.com'
p66
aS'RuaJu@google.com'
p67
aS'RuanJun@google.com'
p68
aaa(lp69
S'Tao'
p70
aS'Li'
p71
a(lp72
S'TaoLi@google.com'
p73
aS'LiTao@google.com'
p74
aS'Tao.Li@google.com'
p75
aS'Li.Tao@google.com'
p76
aS'Tao_Li@google.com'
p77
aS'Li_Tao@google.com'
p78
aS'TLi@google.com'
p79
aS'LTao@google.com'
p80
aS'TaoL@google.com'
p81
aS'T.Li@google.com'
p82
aS'L.Tao@google.com'
p83
aS'LiTa@google.com'
p84
aS'LiTao@google.com'
p85
aaa(lp86
S'Shuo'
p87
aS'Zheng'
p88
a(lp89
S'ShuoZheng@google.com'
p90
aS'ZhengShuo@google.com'
p91
aS'Shuo.Zheng@google.com'
p92
aS'Zheng.Shuo@google.com'
p93
aS'Shuo_Zheng@google.com'
p94
aS'Zheng_Shuo@google.com'
p95
aS'SZheng@google.com'
p96
aS'ZShuo@google.com'
p97
aS'ShuoZ@google.com'
p98
aS'S.Zheng@google.com'
p99
aS'Z.Shuo@google.com'
p100
aS'ZheSh@google.com'
p101
aS'ZhenShu@google.com'
p102
aaa(lp103
S'Yueheng'
p104
aS'Li'
p105
a(lp106
S'YuehengLi@google.com'
p107
aS'LiYueheng@google.com'
p108
aS'Yueheng.Li@google.com'
p109
aS'Li.Yueheng@google.com'
p110
aS'Yueheng_Li@google.com'
p111
aS'Li_Yueheng@google.com'
p112
aS'YLi@google.com'
p113
aS'LYueheng@google.com'
p114
aS'YuehengL@google.com'
p115
aS'Y.Li@google.com'
p116
aS'L.Yueheng@google.com'
p117
aS'LiYu@google.com'
p118
aS'LiYue@google.com'
p119
aaa(lp120
S'Jiang'
p121
aS'He'
p122
a(lp123
S'JiangHe@google.com'
p124
aS'HeJiang@google.com'
p125
aS'Jiang.He@google.com'
p126
aS'He.Jiang@google.com'
p127
aS'Jiang_He@google.com'
p128
aS'He_Jiang@google.com'
p129
aS'JHe@google.com'
p130
aS'HJiang@google.com'
p131
aS'JiangH@google.com'
p132
aS'J.He@google.com'
p133
aS'H.Jiang@google.com'
p134
aS'HeJi@google.com'
p135
aS'HeJia@google.com'
p136
aaa(lp137
S'Qingquan'
p138
aS'Zhang'
p139
a(lp140
S'QingquanZhang@google.com'
p141
aS'ZhangQingquan@google.com'
p142
aS'Qingquan.Zhang@google.com'
p143
aS'Zhang.Qingquan@google.com'
p144
aS'Qingquan_Zhang@google.com'
p145
aS'Zhang_Qingquan@google.com'
p146
aS'QZhang@google.com'
p147
aS'ZQingquan@google.com'
p148
aS'QingquanZ@google.com'
p149
aS'Q.Zhang@google.com'
p150
aS'Z.Qingquan@google.com'
p151
aS'ZhaQi@google.com'
p152
aS'ZhanQin@google.com'
p153
aaa(lp154
S'Yicheng'
p155
aS'Ren'
p156
a(lp157
S'YichengRen@google.com'
p158
aS'RenYicheng@google.com'
p159
aS'Yicheng.Ren@google.com'
p160
aS'Ren.Yicheng@google.com'
p161
aS'Yicheng_Ren@google.com'
p162
aS'Ren_Yicheng@google.com'
p163
aS'YRen@google.com'
p164
aS'RYicheng@google.com'
p165
aS'YichengR@google.com'
p166
aS'Y.Ren@google.com'
p167
aS'R.Yicheng@google.com'
p168
aS'RenYi@google.com'
p169
aS'RenYic@google.com'
p170
aaa(lp171
S'Chen'
p172
aS'Gao'
p173
a(lp174
S'ChenGao@google.com'
p175
aS'GaoChen@google.com'
p176
aS'Chen.Gao@google.com'
p177
aS'Gao.Chen@google.com'
p178
aS'Chen_Gao@google.com'
p179
aS'Gao_Chen@google.com'
p180
aS'CGao@google.com'
p181
aS'GChen@google.com'
p182
aS'ChenG@google.com'
p183
aS'C.Gao@google.com'
p184
aS'G.Chen@google.com'
p185
aS'GaoCh@google.com'
p186
aS'GaoChe@google.com'
p187
aaa(lp188
S'Yuxiang'
p189
aS'Ricky'
p190
a(lp191
S'YuxiangRicky@google.com'
p192
aS'RickyYuxiang@google.com'
p193
aS'Yuxiang.Ricky@google.com'
p194
aS'Ricky.Yuxiang@google.com'
p195
aS'Yuxiang_Ricky@google.com'
p196
aS'Ricky_Yuxiang@google.com'
p197
aS'YRicky@google.com'
p198
aS'RYuxiang@google.com'
p199
aS'YuxiangR@google.com'
p200
aS'Y.Ricky@google.com'
p201
aS'R.Yuxiang@google.com'
p202
aS'RicYu@google.com'
p203
aS'RickYux@google.com'
p204
aaa(lp205
S'Yuchen'
p206
aS'Liu'
p207
a(lp208
S'YuchenLiu@google.com'
p209
aS'LiuYuchen@google.com'
p210
aS'Yuchen.Liu@google.com'
p211
aS'Liu.Yuchen@google.com'
p212
aS'Yuchen_Liu@google.com'
p213
aS'Liu_Yuchen@google.com'
p214
aS'YLiu@google.com'
p215
aS'LYuchen@google.com'
p216
aS'YuchenL@google.com'
p217
aS'Y.Liu@google.com'
p218
aS'L.Yuchen@google.com'
p219
aS'LiuYu@google.com'
p220
aS'LiuYuc@google.com'
p221
aaa(lp222
S'Qiao'
p223
aS'Zhang'
p224
a(lp225
S'QiaoZhang@google.com'
p226
aS'ZhangQiao@google.com'
p227
aS'Qiao.Zhang@google.com'
p228
aS'Zhang.Qiao@google.com'
p229
aS'Qiao_Zhang@google.com'
p230
aS'Zhang_Qiao@google.com'
p231
aS'QZhang@google.com'
p232
aS'ZQiao@google.com'
p233
aS'QiaoZ@google.com'
p234
aS'Q.Zhang@google.com'
p235
aS'Z.Qiao@google.com'
p236
aS'ZhaQi@google.com'
p237
aS'ZhanQia@google.com'
p238
aaa(lp239
S'Guangchun'
p240
aS'Cheng'
p241
a(lp242
S'GuangchunCheng@google.com'
p243
aS'ChengGuangchun@google.com'
p244
aS'Guangchun.Cheng@google.com'
p245
aS'Cheng.Guangchun@google.com'
p246
aS'Guangchun_Cheng@google.com'
p247
aS'Cheng_Guangchun@google.com'
p248
aS'GCheng@google.com'
p249
aS'CGuangchun@google.com'
p250
aS'GuangchunC@google.com'
p251
aS'G.Cheng@google.com'
p252
aS'C.Guangchun@google.com'
p253
aS'CheGu@google.com'
p254
aS'ChenGua@google.com'
p255
aaa(lp256
S'Wenzhe'
p257
aS'Li'
p258
a(lp259
S'WenzheLi@google.com'
p260
aS'LiWenzhe@google.com'
p261
aS'Wenzhe.Li@google.com'
p262
aS'Li.Wenzhe@google.com'
p263
aS'Wenzhe_Li@google.com'
p264
aS'Li_Wenzhe@google.com'
p265
aS'WLi@google.com'
p266
aS'LWenzhe@google.com'
p267
aS'WenzheL@google.com'
p268
aS'W.Li@google.com'
p269
aS'L.Wenzhe@google.com'
p270
aS'LiWe@google.com'
p271
aS'LiWen@google.com'
p272
aaa(lp273
S'Lixun'
p274
aS'Mao'
p275
a(lp276
S'LixunMao@google.com'
p277
aS'MaoLixun@google.com'
p278
aS'Lixun.Mao@google.com'
p279
aS'Mao.Lixun@google.com'
p280
aS'Lixun_Mao@google.com'
p281
aS'Mao_Lixun@google.com'
p282
aS'LMao@google.com'
p283
aS'MLixun@google.com'
p284
aS'LixunM@google.com'
p285
aS'L.Mao@google.com'
p286
aS'M.Lixun@google.com'
p287
aS'MaoLi@google.com'
p288
aS'MaoLix@google.com'
p289
aaa(lp290
S'Jiannan'
p291
aS'Liu'
p292
a(lp293
S'JiannanLiu@google.com'
p294
aS'LiuJiannan@google.com'
p295
aS'Jiannan.Liu@google.com'
p296
aS'Liu.Jiannan@google.com'
p297
aS'Jiannan_Liu@google.com'
p298
aS'Liu_Jiannan@google.com'
p299
aS'JLiu@google.com'
p300
aS'LJiannan@google.com'
p301
aS'JiannanL@google.com'
p302
aS'J.Liu@google.com'
p303
aS'L.Jiannan@google.com'
p304
aS'LiuJi@google.com'
p305
aS'LiuJia@google.com'
p306
aaa(lp307
S'Yi'
p308
aS'YU'
p309
a(lp310
S'YiYU@google.com'
p311
aS'YUYi@google.com'
p312
aS'Yi.YU@google.com'
p313
aS'YU.Yi@google.com'
p314
aS'Yi_YU@google.com'
p315
aS'YU_Yi@google.com'
p316
aS'YYU@google.com'
p317
aS'YYi@google.com'
p318
aS'YiY@google.com'
p319
aS'Y.YU@google.com'
p320
aS'Y.Yi@google.com'
p321
aS'YUYi@google.com'
p322
aS'YUYi@google.com'
p323
aaa(lp324
S'Bing'
p325
aS'Yang'
p326
a(lp327
S'BingYang@google.com'
p328
aS'YangBing@google.com'
p329
aS'Bing.Yang@google.com'
p330
aS'Yang.Bing@google.com'
p331
aS'Bing_Yang@google.com'
p332
aS'Yang_Bing@google.com'
p333
aS'BYang@google.com'
p334
aS'YBing@google.com'
p335
aS'BingY@google.com'
p336
aS'B.Yang@google.com'
p337
aS'Y.Bing@google.com'
p338
aS'YanBi@google.com'
p339
aS'YangBin@google.com'
p340
aaa(lp341
S'Mohan'
p342
aS'Yang'
p343
a(lp344
S'MohanYang@google.com'
p345
aS'YangMohan@google.com'
p346
aS'Mohan.Yang@google.com'
p347
aS'Yang.Mohan@google.com'
p348
aS'Mohan_Yang@google.com'
p349
aS'Yang_Mohan@google.com'
p350
aS'MYang@google.com'
p351
aS'YMohan@google.com'
p352
aS'MohanY@google.com'
p353
aS'M.Yang@google.com'
p354
aS'Y.Mohan@google.com'
p355
aS'YanMo@google.com'
p356
aS'YangMoh@google.com'
p357
aaa(lp358
S'Ke'
p359
aS'Yang'
p360
a(lp361
S'KeYang@google.com'
p362
aS'YangKe@google.com'
p363
aS'Ke.Yang@google.com'
p364
aS'Yang.Ke@google.com'
p365
aS'Ke_Yang@google.com'
p366
aS'Yang_Ke@google.com'
p367
aS'KYang@google.com'
p368
aS'YKe@google.com'
p369
aS'KeY@google.com'
p370
aS'K.Yang@google.com'
p371
aS'Y.Ke@google.com'
p372
aS'YanKe@google.com'
p373
aS'YangKe@google.com'
p374
aaa(lp375
S'Jiande'
p376
aS'Zhan'
p377
a(lp378
S'JiandeZhan@google.com'
p379
aS'ZhanJiande@google.com'
p380
aS'Jiande.Zhan@google.com'
p381
aS'Zhan.Jiande@google.com'
p382
aS'Jiande_Zhan@google.com'
p383
aS'Zhan_Jiande@google.com'
p384
aS'JZhan@google.com'
p385
aS'ZJiande@google.com'
p386
aS'JiandeZ@google.com'
p387
aS'J.Zhan@google.com'
p388
aS'Z.Jiande@google.com'
p389
aS'ZhaJi@google.com'
p390
aS'ZhanJia@google.com'
p391
aaa(lp392
S'CHao'
p393
aS'Pan'
p394
a(lp395
S'CHaoPan@google.com'
p396
aS'PanCHao@google.com'
p397
aS'CHao.Pan@google.com'
p398
aS'Pan.CHao@google.com'
p399
aS'CHao_Pan@google.com'
p400
aS'Pan_CHao@google.com'
p401
aS'CPan@google.com'
p402
aS'PCHao@google.com'
p403
aS'CHaoP@google.com'
p404
aS'C.Pan@google.com'
p405
aS'P.CHao@google.com'
p406
aS'PanCH@google.com'
p407
aS'PanCHa@google.com'
p408
aaa(lp409
S'Xinpei'
p410
aS'Yu'
p411
a(lp412
S'XinpeiYu@google.com'
p413
aS'YuXinpei@google.com'
p414
aS'Xinpei.Yu@google.com'
p415
aS'Yu.Xinpei@google.com'
p416
aS'Xinpei_Yu@google.com'
p417
aS'Yu_Xinpei@google.com'
p418
aS'XYu@google.com'
p419
aS'YXinpei@google.com'
p420
aS'XinpeiY@google.com'
p421
aS'X.Yu@google.com'
p422
aS'Y.Xinpei@google.com'
p423
aS'YuXi@google.com'
p424
aS'YuXin@google.com'
p425
aaa(lp426
S'Fan'
p427
aS'Zhang'
p428
a(lp429
S'FanZhang@google.com'
p430
aS'ZhangFan@google.com'
p431
aS'Fan.Zhang@google.com'
p432
aS'Zhang.Fan@google.com'
p433
aS'Fan_Zhang@google.com'
p434
aS'Zhang_Fan@google.com'
p435
aS'FZhang@google.com'
p436
aS'ZFan@google.com'
p437
aS'FanZ@google.com'
p438
aS'F.Zhang@google.com'
p439
aS'Z.Fan@google.com'
p440
aS'ZhaFa@google.com'
p441
aS'ZhanFan@google.com'
p442
aaa(lp443
S'Yijie'
p444
aS'Zhuang'
p445
a(lp446
S'YijieZhuang@google.com'
p447
aS'ZhuangYijie@google.com'
p448
aS'Yijie.Zhuang@google.com'
p449
aS'Zhuang.Yijie@google.com'
p450
aS'Yijie_Zhuang@google.com'
p451
aS'Zhuang_Yijie@google.com'
p452
aS'YZhuang@google.com'
p453
aS'ZYijie@google.com'
p454
aS'YijieZ@google.com'
p455
aS'Y.Zhuang@google.com'
p456
aS'Z.Yijie@google.com'
p457
aS'ZhuYi@google.com'
p458
aS'ZhuaYij@google.com'
p459
aaa(lp460
S'Aria'
p461
aS'Xu'
p462
a(lp463
S'AriaXu@google.com'
p464
aS'XuAria@google.com'
p465
aS'Aria.Xu@google.com'
p466
aS'Xu.Aria@google.com'
p467
aS'Aria_Xu@google.com'
p468
aS'Xu_Aria@google.com'
p469
aS'AXu@google.com'
p470
aS'XAria@google.com'
p471
aS'AriaX@google.com'
p472
aS'A.Xu@google.com'
p473
aS'X.Aria@google.com'
p474
aS'XuAr@google.com'
p475
aS'XuAri@google.com'
p476
aaa(lp477
S'Yun'
p478
aS'Qing'
p479
a(lp480
S'YunQing@google.com'
p481
aS'QingYun@google.com'
p482
aS'Yun.Qing@google.com'
p483
aS'Qing.Yun@google.com'
p484
aS'Yun_Qing@google.com'
p485
aS'Qing_Yun@google.com'
p486
aS'YQing@google.com'
p487
aS'QYun@google.com'
p488
aS'YunQ@google.com'
p489
aS'Y.Qing@google.com'
p490
aS'Q.Yun@google.com'
p491
aS'QinYu@google.com'
p492
aS'QingYun@google.com'
p493
aaa(lp494
S'Yun'
p495
aS'Li'
p496
a(lp497
S'YunLi@google.com'
p498
aS'LiYun@google.com'
p499
aS'Yun.Li@google.com'
p500
aS'Li.Yun@google.com'
p501
aS'Yun_Li@google.com'
p502
aS'Li_Yun@google.com'
p503
aS'YLi@google.com'
p504
aS'LYun@google.com'
p505
aS'YunL@google.com'
p506
aS'Y.Li@google.com'
p507
aS'L.Yun@google.com'
p508
aS'LiYu@google.com'
p509
aS'LiYun@google.com'
p510
aaa(lp511
S'Guangjie'
p512
aS'Jerry'
p513
a(lp514
S'GuangjieJerry@google.com'
p515
aS'JerryGuangjie@google.com'
p516
aS'Guangjie.Jerry@google.com'
p517
aS'Jerry.Guangjie@google.com'
p518
aS'Guangjie_Jerry@google.com'
p519
aS'Jerry_Guangjie@google.com'
p520
aS'GJerry@google.com'
p521
aS'JGuangjie@google.com'
p522
aS'GuangjieJ@google.com'
p523
aS'G.Jerry@google.com'
p524
aS'J.Guangjie@google.com'
p525
aS'JerGu@google.com'
p526
aS'JerrGua@google.com'
p527
aaa(lp528
S'Fei'
p529
aS'Deng'
p530
a(lp531
S'FeiDeng@google.com'
p532
aS'DengFei@google.com'
p533
aS'Fei.Deng@google.com'
p534
aS'Deng.Fei@google.com'
p535
aS'Fei_Deng@google.com'
p536
aS'Deng_Fei@google.com'
p537
aS'FDeng@google.com'
p538
aS'DFei@google.com'
p539
aS'FeiD@google.com'
p540
aS'F.Deng@google.com'
p541
aS'D.Fei@google.com'
p542
aS'DenFe@google.com'
p543
aS'DengFei@google.com'
p544
aaa(lp545
S'Tianwei'
p546
aS'Terry'
p547
a(lp548
S'TianweiTerry@google.com'
p549
aS'TerryTianwei@google.com'
p550
aS'Tianwei.Terry@google.com'
p551
aS'Terry.Tianwei@google.com'
p552
aS'Tianwei_Terry@google.com'
p553
aS'Terry_Tianwei@google.com'
p554
aS'TTerry@google.com'
p555
aS'TTianwei@google.com'
p556
aS'TianweiT@google.com'
p557
aS'T.Terry@google.com'
p558
aS'T.Tianwei@google.com'
p559
aS'TerTi@google.com'
p560
aS'TerrTia@google.com'
p561
aaa(lp562
S'Wei'
p563
aS'Chen'
p564
a(lp565
S'WeiChen@google.com'
p566
aS'ChenWei@google.com'
p567
aS'Wei.Chen@google.com'
p568
aS'Chen.Wei@google.com'
p569
aS'Wei_Chen@google.com'
p570
aS'Chen_Wei@google.com'
p571
aS'WChen@google.com'
p572
aS'CWei@google.com'
p573
aS'WeiC@google.com'
p574
aS'W.Chen@google.com'
p575
aS'C.Wei@google.com'
p576
aS'CheWe@google.com'
p577
aS'ChenWei@google.com'
p578
aaa(lp579
S'Zhengxiong'
p580
aS'Bill'
p581
a(lp582
S'ZhengxiongBill@google.com'
p583
aS'BillZhengxiong@google.com'
p584
aS'Zhengxiong.Bill@google.com'
p585
aS'Bill.Zhengxiong@google.com'
p586
aS'Zhengxiong_Bill@google.com'
p587
aS'Bill_Zhengxiong@google.com'
p588
aS'ZBill@google.com'
p589
aS'BZhengxiong@google.com'
p590
aS'ZhengxiongB@google.com'
p591
aS'Z.Bill@google.com'
p592
aS'B.Zhengxiong@google.com'
p593
aS'BilZh@google.com'
p594
aS'BillZhe@google.com'
p595
aaa(lp596
S'Zhennan'
p597
aS'Xu'
p598
a(lp599
S'ZhennanXu@google.com'
p600
aS'XuZhennan@google.com'
p601
aS'Zhennan.Xu@google.com'
p602
aS'Xu.Zhennan@google.com'
p603
aS'Zhennan_Xu@google.com'
p604
aS'Xu_Zhennan@google.com'
p605
aS'ZXu@google.com'
p606
aS'XZhennan@google.com'
p607
aS'ZhennanX@google.com'
p608
aS'Z.Xu@google.com'
p609
aS'X.Zhennan@google.com'
p610
aS'XuZh@google.com'
p611
aS'XuZhe@google.com'
p612
aaa(lp613
S'Weiwei'
p614
aS'Yan'
p615
a(lp616
S'WeiweiYan@google.com'
p617
aS'YanWeiwei@google.com'
p618
aS'Weiwei.Yan@google.com'
p619
aS'Yan.Weiwei@google.com'
p620
aS'Weiwei_Yan@google.com'
p621
aS'Yan_Weiwei@google.com'
p622
aS'WYan@google.com'
p623
aS'YWeiwei@google.com'
p624
aS'WeiweiY@google.com'
p625
aS'W.Yan@google.com'
p626
aS'Y.Weiwei@google.com'
p627
aS'YanWe@google.com'
p628
aS'YanWei@google.com'
p629
aaa(lp630
S'yan'
p631
aS'wang'
p632
a(lp633
S'yanwang@google.com'
p634
aS'wangyan@google.com'
p635
aS'yan.wang@google.com'
p636
aS'wang.yan@google.com'
p637
aS'yan_wang@google.com'
p638
aS'wang_yan@google.com'
p639
aS'ywang@google.com'
p640
aS'wyan@google.com'
p641
aS'yanw@google.com'
p642
aS'y.wang@google.com'
p643
aS'w.yan@google.com'
p644
aS'wanya@google.com'
p645
aS'wangyan@google.com'
p646
aaa(lp647
S'Yi'
p648
aS'Jin'
p649
a(lp650
S'YiJin@google.com'
p651
aS'JinYi@google.com'
p652
aS'Yi.Jin@google.com'
p653
aS'Jin.Yi@google.com'
p654
aS'Yi_Jin@google.com'
p655
aS'Jin_Yi@google.com'
p656
aS'YJin@google.com'
p657
aS'JYi@google.com'
p658
aS'YiJ@google.com'
p659
aS'Y.Jin@google.com'
p660
aS'J.Yi@google.com'
p661
aS'JinYi@google.com'
p662
aS'JinYi@google.com'
p663
aaa(lp664
S'Yichen'
p665
aS'Jiang'
p666
a(lp667
S'YichenJiang@google.com'
p668
aS'JiangYichen@google.com'
p669
aS'Yichen.Jiang@google.com'
p670
aS'Jiang.Yichen@google.com'
p671
aS'Yichen_Jiang@google.com'
p672
aS'Jiang_Yichen@google.com'
p673
aS'YJiang@google.com'
p674
aS'JYichen@google.com'
p675
aS'YichenJ@google.com'
p676
aS'Y.Jiang@google.com'
p677
aS'J.Yichen@google.com'
p678
aS'JiaYi@google.com'
p679
aS'JianYic@google.com'
p680
aaa.